; Function Attrs: nofree nounwind uwtable
define dso_local range(i32 0, 2) i32 @readLong(ptr noundef captures(none) %0, i8 noundef signext %1, ptr noundef writeonly captures(none) %2) local_unnamed_addr #0 {
  %4 = alloca [1024 x i8], align 16
  %5 = alloca [128 x i8], align 16
  %6 = alloca ptr, align 8
  %7 = alloca [1024 x i8], align 16
  call void @llvm.lifetime.start.p0(i64 128, ptr nonnull %5) #16
  call void @llvm.lifetime.start.p0(i64 8, ptr nonnull %6) #16
  %8 = tail call i64 @ftello64(ptr noundef %0)
  store i64 %8, ptr @epos, align 8, !tbaa !8
  %9 = call ptr @fgets(ptr noundef nonnull %5, i32 noundef 128, ptr noundef %0)
  %10 = icmp eq ptr %9, null
  br i1 %10, label %consumeNewline.exit, label %11

11:                                               ; preds = %3
  %12 = load i8, ptr %5, align 16, !tbaa !5
  %.not = icmp eq i8 %12, %1
  br i1 %.not, label %19, label %13

13:                                               ; preds = %11
  %14 = sext i8 %1 to i32
  call void @llvm.lifetime.start.p0(i64 1024, ptr nonnull %7) #16
  %15 = sext i8 %12 to i32
  %16 = call i32 (ptr, i64, ptr, ...) @snprintf(ptr noundef nonnull dereferenceable(1) %7, i64 noundef 1024, ptr noundef nonnull @.str.3, i32 noundef %14, i32 noundef %15) #16
  %17 = load i64, ptr @epos, align 8, !tbaa !8
  %18 = call i32 (ptr, i64, ptr, ...) @snprintf(ptr noundef nonnull dereferenceable(1) @error, i64 noundef 1044, ptr noundef nonnull @.str.2, i64 noundef %17, ptr noundef nonnull %7) #16
  call void @llvm.lifetime.end.p0(i64 1024, ptr nonnull %7) #16
  br label %consumeNewline.exit

19:                                               ; preds = %11
  %20 = getelementptr inbounds nuw i8, ptr %5, i64 1
  %21 = call i64 @strtol(ptr noundef nonnull %20, ptr noundef nonnull %6, i32 noundef 10) #16
  store i64 %21, ptr %2, align 8, !tbaa !8
  %22 = load ptr, ptr %6, align 8, !tbaa !12
  %23 = load i8, ptr %22, align 1
  %.not3.i = icmp eq i8 %23, 13
  %24 = getelementptr inbounds nuw i8, ptr %22, i64 1
  %25 = load i8, ptr %24, align 1
  %26 = icmp eq i8 %25, 10
  %or.cond = select i1 %.not3.i, i1 %26, i1 false
  br i1 %or.cond, label %32, label %.tail.thread.i

.tail.thread.i:                                   ; preds = %19
  call void @llvm.lifetime.start.p0(i64 1024, ptr nonnull %4) #16
  %27 = sext i8 %23 to i32
  %28 = sext i8 %25 to i32
  %29 = call i32 (ptr, i64, ptr, ...) @snprintf(ptr noundef nonnull dereferenceable(1) %4, i64 noundef 1024, ptr noundef nonnull @.str.1, i32 noundef %27, i32 noundef %28) #16
  %30 = load i64, ptr @epos, align 8, !tbaa !8
  %31 = call i32 (ptr, i64, ptr, ...) @snprintf(ptr noundef nonnull dereferenceable(1) @error, i64 noundef 1044, ptr noundef nonnull @.str.2, i64 noundef %30, ptr noundef nonnull %4) #16
  call void @llvm.lifetime.end.p0(i64 1024, ptr nonnull %4) #16
  br label %consumeNewline.exit

32:                                               ; preds = %19
  %33 = load i64, ptr @line, align 8, !tbaa !10
  %34 = add nsw i64 %33, 1
  store i64 %34, ptr @line, align 8, !tbaa !10
  br label %consumeNewline.exit

consumeNewline.exit:                              ; preds = %32, %.tail.thread.i, %3, %13
  %.0 = phi i32 [ 0, %13 ], [ 0, %3 ], [ 0, %.tail.thread.i ], [ 1, %32 ]
  call void @llvm.lifetime.end.p0(i64 8, ptr nonnull %6) #16
  call void @llvm.lifetime.end.p0(i64 128, ptr nonnull %5) #16
  ret i32 %.0
}